target datalayout = "e-m:e-p270:32:32-p271:32:32-p272:64:64-i64:64-f80:128-n8:16:32:64-S128"
target triple = "x86_64-pc-linux-gnu"

@.str = private unnamed_addr constant [9 x i8] c"%d %s %d\00", align 1
@.str.1 = private unnamed_addr constant [3 x i8] c"%c\00", align 1

; Function Attrs: noinline nounwind uwtable
define dso_local i32 @f(i32 %0, i32 %1) #0 {
  %3 = alloca i32, align 4
  %4 = alloca i32, align 4
  %5 = alloca i32, align 4
  %6 = alloca i32, align 4
  store i32 %0, i32* %3, align 4
  store i32 %1, i32* %4, align 4
  store i32 1, i32* %6, align 4
  store i32 0, i32* %5, align 4
  br label %7

7:                                                ; preds = %15, %2
  %8 = load i32, i32* %5, align 4
  %9 = load i32, i32* %4, align 4
  %10 = icmp slt i32 %8, %9
  br i1 %10, label %11, label %18

11:                                               ; preds = %7
  %12 = load i32, i32* %6, align 4
  %13 = load i32, i32* %3, align 4
  %14 = mul nsw i32 %12, %13
  store i32 %14, i32* %6, align 4
  br label %15

15:                                               ; preds = %11
  %16 = load i32, i32* %5, align 4
  %17 = add nsw i32 %16, 1
  store i32 %17, i32* %5, align 4
  br label %7

18:                                               ; preds = %7
  %19 = load i32, i32* %6, align 4
  ret i32 %19
}

; Function Attrs: noinline nounwind uwtable
define dso_local i32 @main() #0 {
  %1 = alloca i32, align 4
  %2 = alloca [100 x i8], align 16
  %3 = alloca i32, align 4
  %4 = alloca i32, align 4
  %5 = alloca i32, align 4
  %6 = alloca [100 x i32], align 16
  %7 = alloca [100 x i32], align 16
  %8 = alloca i32, align 4
  %9 = alloca i64, align 8
  store i32 0, i32* %1, align 4
  store i64 0, i64* %9, align 8
  %10 = getelementptr inbounds [100 x i8], [100 x i8]* %2, i64 0, i64 0
  %11 = call i32 (i8*, ...) @__isoc99_scanf(i8* getelementptr inbounds ([9 x i8], [9 x i8]* @.str, i64 0, i64 0), i32* %4, i8* %10, i32* %5)
  %12 = getelementptr inbounds [100 x i8], [100 x i8]* %2, i64 0, i64 0
  %13 = call i64 @strlen(i8* %12) #3
  %14 = trunc i64 %13 to i32
  store i32 %14, i32* %8, align 4
  store i32 0, i32* %3, align 4
  br label %15

15:                                               ; preds = %96, %0
  %16 = load i32, i32* %3, align 4
  %17 = load i32, i32* %8, align 4
  %18 = icmp slt i32 %16, %17
  br i1 %18, label %19, label %99

19:                                               ; preds = %15
  %20 = load i32, i32* %3, align 4
  %21 = sext i32 %20 to i64
  %22 = getelementptr inbounds [100 x i8], [100 x i8]* %2, i64 0, i64 %21
  %23 = load i8, i8* %22, align 1
  %24 = sext i8 %23 to i32
  %25 = icmp sge i32 %24, 97
  br i1 %25, label %26, label %45

26:                                               ; preds = %19
  %27 = load i32, i32* %3, align 4
  %28 = sext i32 %27 to i64
  %29 = getelementptr inbounds [100 x i8], [100 x i8]* %2, i64 0, i64 %28
  %30 = load i8, i8* %29, align 1
  %31 = sext i8 %30 to i32
  %32 = icmp sle i32 %31, 122
  br i1 %32, label %33, label %45

33:                                               ; preds = %26
  %34 = load i32, i32* %3, align 4
  %35 = sext i32 %34 to i64
  %36 = getelementptr inbounds [100 x i8], [100 x i8]* %2, i64 0, i64 %35
  %37 = load i8, i8* %36, align 1
  %38 = sext i8 %37 to i32
  %39 = add nsw i32 %38, 65
  %40 = sub nsw i32 %39, 97
  %41 = trunc i32 %40 to i8
  %42 = load i32, i32* %3, align 4
  %43 = sext i32 %42 to i64
  %44 = getelementptr inbounds [100 x i8], [100 x i8]* %2, i64 0, i64 %43
  store i8 %41, i8* %44, align 1
  br label %45

45:                                               ; preds = %33, %26, %19
  %46 = load i32, i32* %3, align 4
  %47 = sext i32 %46 to i64
  %48 = getelementptr inbounds [100 x i8], [100 x i8]* %2, i64 0, i64 %47
  %49 = load i8, i8* %48, align 1
  %50 = sext i8 %49 to i32
  %51 = icmp sge i32 %50, 48
  br i1 %51, label %52, label %69

52:                                               ; preds = %45
  %53 = load i32, i32* %3, align 4
  %54 = sext i32 %53 to i64
  %55 = getelementptr inbounds [100 x i8], [100 x i8]* %2, i64 0, i64 %54
  %56 = load i8, i8* %55, align 1
  %57 = sext i8 %56 to i32
  %58 = icmp sle i32 %57, 57
  br i1 %58, label %59, label %69

59:                                               ; preds = %52
  %60 = load i32, i32* %3, align 4
  %61 = sext i32 %60 to i64
  %62 = getelementptr inbounds [100 x i8], [100 x i8]* %2, i64 0, i64 %61
  %63 = load i8, i8* %62, align 1
  %64 = sext i8 %63 to i32
  %65 = sub nsw i32 %64, 48
  %66 = load i32, i32* %3, align 4
  %67 = sext i32 %66 to i64
  %68 = getelementptr inbounds [100 x i32], [100 x i32]* %6, i64 0, i64 %67
  store i32 %65, i32* %68, align 4
  br label %95

69:                                               ; preds = %52, %45
  %70 = load i32, i32* %3, align 4
  %71 = sext i32 %70 to i64
  %72 = getelementptr inbounds [100 x i8], [100 x i8]* %2, i64 0, i64 %71
  %73 = load i8, i8* %72, align 1
  %74 = sext i8 %73 to i32
  %75 = icmp sge i32 %74, 65
  br i1 %75, label %76, label %94

76:                                               ; preds = %69
  %77 = load i32, i32* %3, align 4
  %78 = sext i32 %77 to i64
  %79 = getelementptr inbounds [100 x i8], [100 x i8]* %2, i64 0, i64 %78
  %80 = load i8, i8* %79, align 1
  %81 = sext i8 %80 to i32
  %82 = icmp sle i32 %81, 90
  br i1 %82, label %83, label %94

83:                                               ; preds = %76
  %84 = load i32, i32* %3, align 4
  %85 = sext i32 %84 to i64
  %86 = getelementptr inbounds [100 x i8], [100 x i8]* %2, i64 0, i64 %85
  %87 = load i8, i8* %86, align 1
  %88 = sext i8 %87 to i32
  %89 = sub nsw i32 %88, 65
  %90 = add nsw i32 %89, 10
  %91 = load i32, i32* %3, align 4
  %92 = sext i32 %91 to i64
  %93 = getelementptr inbounds [100 x i32], [100 x i32]* %6, i64 0, i64 %92
  store i32 %90, i32* %93, align 4
  br label %94

94:                                               ; preds = %83, %76, %69
  br label %95

95:                                               ; preds = %94, %59
  br label %96

96:                                               ; preds = %95
  %97 = load i32, i32* %3, align 4
  %98 = add nsw i32 %97, 1
  store i32 %98, i32* %3, align 4
  br label %15

99:                                               ; preds = %15
  %100 = load i32, i32* %8, align 4
  %101 = sub nsw i32 %100, 1
  store i32 %101, i32* %3, align 4
  br label %102

102:                                              ; preds = %120, %99
  %103 = load i32, i32* %3, align 4
  %104 = icmp sge i32 %103, 0
  br i1 %104, label %105, label %123

105:                                              ; preds = %102
  %106 = load i64, i64* %9, align 8
  %107 = load i32, i32* %3, align 4
  %108 = sext i32 %107 to i64
  %109 = getelementptr inbounds [100 x i32], [100 x i32]* %6, i64 0, i64 %108
  %110 = load i32, i32* %109, align 4
  %111 = load i32, i32* %4, align 4
  %112 = load i32, i32* %8, align 4
  %113 = load i32, i32* %3, align 4
  %114 = sub nsw i32 %112, %113
  %115 = sub nsw i32 %114, 1
  %116 = call i32 @f(i32 %111, i32 %115)
  %117 = mul nsw i32 %110, %116
  %118 = sext i32 %117 to i64
  %119 = add nsw i64 %106, %118
  store i64 %119, i64* %9, align 8
  br label %120

120:                                              ; preds = %105
  %121 = load i32, i32* %3, align 4
  %122 = add nsw i32 %121, -1
  store i32 %122, i32* %3, align 4
  br label %102

123:                                              ; preds = %102
  store i32 0, i32* %3, align 4
  br label %124

124:                                              ; preds = %142, %123
  %125 = load i64, i64* %9, align 8
  %126 = load i32, i32* %5, align 4
  %127 = sext i32 %126 to i64
  %128 = icmp sge i64 %125, %127
  br i1 %128, label %129, label %145

129:                                              ; preds = %124
  %130 = load i64, i64* %9, align 8
  %131 = load i32, i32* %5, align 4
  %132 = sext i32 %131 to i64
  %133 = srem i64 %130, %132
  %134 = trunc i64 %133 to i32
  %135 = load i32, i32* %3, align 4
  %136 = sext i32 %135 to i64
  %137 = getelementptr inbounds [100 x i32], [100 x i32]* %7, i64 0, i64 %136
  store i32 %134, i32* %137, align 4
  %138 = load i64, i64* %9, align 8
  %139 = load i32, i32* %5, align 4
  %140 = sext i32 %139 to i64
  %141 = sdiv i64 %138, %140
  store i64 %141, i64* %9, align 8
  br label %142

142:                                              ; preds = %129
  %143 = load i32, i32* %3, align 4
  %144 = add nsw i32 %143, 1
  store i32 %144, i32* %3, align 4
  br label %124

145:                                              ; preds = %124
  %146 = load i64, i64* %9, align 8
  %147 = load i32, i32* %5, align 4
  %148 = sext i32 %147 to i64
  %149 = srem i64 %146, %148
  %150 = trunc i64 %149 to i32
  %151 = load i32, i32* %3, align 4
  %152 = sext i32 %151 to i64
  %153 = getelementptr inbounds [100 x i32], [100 x i32]* %7, i64 0, i64 %152
  store i32 %150, i32* %153, align 4
  br label %154

154:                                              ; preds = %207, %145
  %155 = load i32, i32* %3, align 4
  %156 = icmp sge i32 %155, 0
  br i1 %156, label %157, label %210

157:                                              ; preds = %154
  %158 = load i32, i32* %3, align 4
  %159 = sext i32 %158 to i64
  %160 = getelementptr inbounds [100 x i32], [100 x i32]* %7, i64 0, i64 %159
  %161 = load i32, i32* %160, align 4
  %162 = icmp sge i32 %161, 0
  br i1 %162, label %163, label %178

163:                                              ; preds = %157
  %164 = load i32, i32* %3, align 4
  %165 = sext i32 %164 to i64
  %166 = getelementptr inbounds [100 x i32], [100 x i32]* %7, i64 0, i64 %165
  %167 = load i32, i32* %166, align 4
  %168 = icmp sle i32 %167, 9
  br i1 %168, label %169, label %178

169:                                              ; preds = %163
  %170 = load i32, i32* %3, align 4
  %171 = sext i32 %170 to i64
  %172 = getelementptr inbounds [100 x i32], [100 x i32]* %7, i64 0, i64 %171
  %173 = load i32, i32* %172, align 4
  %174 = add nsw i32 %173, 48
  %175 = load i32, i32* %3, align 4
  %176 = sext i32 %175 to i64
  %177 = getelementptr inbounds [100 x i32], [100 x i32]* %6, i64 0, i64 %176
  store i32 %174, i32* %177, align 4
  br label %201

178:                                              ; preds = %163, %157
  %179 = load i32, i32* %3, align 4
  %180 = sext i32 %179 to i64
  %181 = getelementptr inbounds [100 x i32], [100 x i32]* %7, i64 0, i64 %180
  %182 = load i32, i32* %181, align 4
  %183 = icmp sge i32 %182, 10
  br i1 %183, label %184, label %200

184:                                              ; preds = %178
  %185 = load i32, i32* %3, align 4
  %186 = sext i32 %185 to i64
  %187 = getelementptr inbounds [100 x i32], [100 x i32]* %7, i64 0, i64 %186
  %188 = load i32, i32* %187, align 4
  %189 = icmp slt i32 %188, 26
  br i1 %189, label %190, label %200

190:                                              ; preds = %184
  %191 = load i32, i32* %3, align 4
  %192 = sext i32 %191 to i64
  %193 = getelementptr inbounds [100 x i32], [100 x i32]* %7, i64 0, i64 %192
  %194 = load i32, i32* %193, align 4
  %195 = add nsw i32 %194, 65
  %196 = sub nsw i32 %195, 10
  %197 = load i32, i32* %3, align 4
  %198 = sext i32 %197 to i64
  %199 = getelementptr inbounds [100 x i32], [100 x i32]* %6, i64 0, i64 %198
  store i32 %196, i32* %199, align 4
  br label %200

200:                                              ; preds = %190, %184, %178
  br label %201

201:                                              ; preds = %200, %169
  %202 = load i32, i32* %3, align 4
  %203 = sext i32 %202 to i64
  %204 = getelementptr inbounds [100 x i32], [100 x i32]* %6, i64 0, i64 %203
  %205 = load i32, i32* %204, align 4
  %206 = call i32 (i8*, ...) @printf(i8* getelementptr inbounds ([3 x i8], [3 x i8]* @.str.1, i64 0, i64 0), i32 %205)
  br label %207

207:                                              ; preds = %201
  %208 = load i32, i32* %3, align 4
  %209 = add nsw i32 %208, -1
  store i32 %209, i32* %3, align 4
  br label %154

210:                                              ; preds = %154
  ret i32 0
}